target datalayout = "e-m:e-p270:32:32-p271:32:32-p272:64:64-i64:64-i128:128-f80:128-n8:16:32:64-S128"
target triple = "x86_64-pc-linux-gnu"

%struct.cinfo_tag = type { i32, i32, i32, i32, i32, i32, i32, i32, i32, i32, i32, i32, i32, i32, i32, i32, i32, i64, i64, i64 }
%struct.cube = type { i8, i8, i16, i16, i16, ptr, ptr, ptr, ptr }

@BitCount = global [65536 x i8] zeroinitializer, align 16
@DiffVarCounter = internal global i32 0, align 4
@g_CoverInfo = external global %struct.cinfo_tag, align 8
@Temp1 = internal global i32 0, align 4
@Temp2 = internal global i32 0, align 4
@LastNonZeroWordNum = internal global i32 0, align 4
@LastNonZeroWord = internal global i32 0, align 4
@s_DiffVarNum = external global i32, align 4
@Temp = internal global i32 0, align 4
@s_DiffVarValueP_old = external global i32, align 4
@s_DiffVarValueQ = external global i32, align 4
@s_DiffVarValueP_new = external global i32, align 4

; Function Attrs: inlinehint nounwind uwtable
define internal i32 @VarBit(i32 noundef %0) #3 {
  %2 = alloca i32, align 4
  store i32 %0, ptr %2, align 4, !tbaa !3
  %3 = load i32, ptr %2, align 4, !tbaa !3
  %4 = and i32 %3, 31
  ret i32 %4
}

; Function Attrs: inlinehint nounwind uwtable
define internal i32 @VarWord(i32 noundef %0) #3 {
  %2 = alloca i32, align 4
  store i32 %0, ptr %2, align 4, !tbaa !3
  %3 = load i32, ptr %2, align 4, !tbaa !3
  %4 = ashr i32 %3, 5
  ret i32 %4
}

; Function Attrs: nounwind uwtable
define void @ExorVar(ptr noundef %0, i32 noundef %1, i32 noundef %2) #0 {
  %4 = alloca ptr, align 8
  %5 = alloca i32, align 4
  %6 = alloca i32, align 4
  %7 = alloca i32, align 4
  store ptr %0, ptr %4, align 8, !tbaa !11
  store i32 %1, ptr %5, align 4, !tbaa !3
  store i32 %2, ptr %6, align 4, !tbaa !3
  call void @llvm.lifetime.start.p0(i64 4, ptr %7) #4
  %8 = load i32, ptr %5, align 4, !tbaa !3
  %9 = shl i32 %8, 1
  store i32 %9, ptr %7, align 4, !tbaa !3
  %10 = load i32, ptr %6, align 4, !tbaa !3
  %11 = load i32, ptr %7, align 4, !tbaa !3
  %12 = call i32 @VarBit(i32 noundef %11)
  %13 = shl i32 %10, %12
  %14 = load ptr, ptr %4, align 8, !tbaa !11
  %15 = getelementptr inbounds nuw %struct.cube, ptr %14, i32 0, i32 5
  %16 = load ptr, ptr %15, align 8, !tbaa !14
  %17 = load i32, ptr %7, align 4, !tbaa !3
  %18 = call i32 @VarWord(i32 noundef %17)
  %19 = sext i32 %18 to i64
  %20 = getelementptr inbounds i32, ptr %16, i64 %19
  %21 = load i32, ptr %20, align 4, !tbaa !3
  %22 = xor i32 %21, %13
  store i32 %22, ptr %20, align 4, !tbaa !3
  call void @llvm.lifetime.end.p0(i64 4, ptr %7) #4
  ret void
}

; Function Attrs: nounwind uwtable
define i32 @GetVar(ptr noundef %0, i32 noundef %1) #0 {
  %3 = alloca ptr, align 8
  %4 = alloca i32, align 4
  %5 = alloca i32, align 4
  %6 = alloca i32, align 4
  store ptr %0, ptr %3, align 8, !tbaa !11
  store i32 %1, ptr %4, align 4, !tbaa !3
  call void @llvm.lifetime.start.p0(i64 4, ptr %5) #4
  %7 = load i32, ptr %4, align 4, !tbaa !3
  %8 = shl i32 %7, 1
  store i32 %8, ptr %5, align 4, !tbaa !3
  call void @llvm.lifetime.start.p0(i64 4, ptr %6) #4
  %9 = load ptr, ptr %3, align 8, !tbaa !11
  %10 = getelementptr inbounds nuw %struct.cube, ptr %9, i32 0, i32 5
  %11 = load ptr, ptr %10, align 8, !tbaa !14
  %12 = load i32, ptr %5, align 4, !tbaa !3
  %13 = call i32 @VarWord(i32 noundef %12)
  %14 = sext i32 %13 to i64
  %15 = getelementptr inbounds i32, ptr %11, i64 %14
  %16 = load i32, ptr %15, align 4, !tbaa !3
  %17 = load i32, ptr %5, align 4, !tbaa !3
  %18 = call i32 @VarBit(i32 noundef %17)
  %19 = lshr i32 %16, %18
  %20 = and i32 %19, 3
  store i32 %20, ptr %6, align 4, !tbaa !3
  %21 = load i32, ptr %6, align 4, !tbaa !3
  call void @llvm.lifetime.end.p0(i64 4, ptr %6) #4
  call void @llvm.lifetime.end.p0(i64 4, ptr %5) #4
  ret i32 %21
}

; Function Attrs: inlinehint nounwind uwtable
define internal i32 @BIT_COUNT(i32 noundef %0) #3 {
  %2 = alloca i32, align 4
  store i32 %0, ptr %2, align 4, !tbaa !3
  %3 = load i32, ptr %2, align 4, !tbaa !3
  %4 = and i32 %3, 65535
  %5 = sext i32 %4 to i64
  %6 = getelementptr inbounds [0 x i8], ptr @BitCount, i64 0, i64 %5
  %7 = load i8, ptr %6, align 1, !tbaa !7
  %8 = zext i8 %7 to i32
  %9 = load i32, ptr %2, align 4, !tbaa !3
  %10 = ashr i32 %9, 16
  %11 = sext i32 %10 to i64
  %12 = getelementptr inbounds [0 x i8], ptr @BitCount, i64 0, i64 %11
  %13 = load i8, ptr %12, align 1, !tbaa !7
  %14 = zext i8 %13 to i32
  %15 = add nsw i32 %8, %14
  ret i32 %15
}

; Function Attrs: nounwind uwtable
define i32 @GetDistancePlus(ptr noundef %0, ptr noundef %1) #0 {
  %3 = alloca i32, align 4
  %4 = alloca ptr, align 8
  %5 = alloca ptr, align 8
  %6 = alloca i32, align 4
  %7 = alloca i32, align 4
  store ptr %0, ptr %4, align 8, !tbaa !11
  store ptr %1, ptr %5, align 8, !tbaa !11
  call void @llvm.lifetime.start.p0(i64 4, ptr %6) #4
  store i32 0, ptr @DiffVarCounter, align 4, !tbaa !3
  store i32 -1, ptr @LastNonZeroWordNum, align 4, !tbaa !3
  store i32 0, ptr %6, align 4, !tbaa !3
  br label %8

8:                                                ; preds = %47, %2
  %9 = load i32, ptr %6, align 4, !tbaa !3
  %10 = load i32, ptr getelementptr inbounds nuw (%struct.cinfo_tag, ptr @g_CoverInfo, i32 0, i32 2), align 8, !tbaa !18
  %11 = icmp slt i32 %9, %10
  br i1 %11, label %12, label %50

12:                                               ; preds = %8
  %13 = load ptr, ptr %4, align 8, !tbaa !11
  %14 = getelementptr inbounds nuw %struct.cube, ptr %13, i32 0, i32 5
  %15 = load ptr, ptr %14, align 8, !tbaa !14
  %16 = load i32, ptr %6, align 4, !tbaa !3
  %17 = sext i32 %16 to i64
  %18 = getelementptr inbounds i32, ptr %15, i64 %17
  %19 = load i32, ptr %18, align 4, !tbaa !3
  %20 = load ptr, ptr %5, align 8, !tbaa !11
  %21 = getelementptr inbounds nuw %struct.cube, ptr %20, i32 0, i32 5
  %22 = load ptr, ptr %21, align 8, !tbaa !14
  %23 = load i32, ptr %6, align 4, !tbaa !3
  %24 = sext i32 %23 to i64
  %25 = getelementptr inbounds i32, ptr %22, i64 %24
  %26 = load i32, ptr %25, align 4, !tbaa !3
  %27 = xor i32 %19, %26
  store i32 %27, ptr @Temp1, align 4, !tbaa !3
  %28 = load i32, ptr @Temp1, align 4, !tbaa !3
  %29 = load i32, ptr @Temp1, align 4, !tbaa !3
  %30 = lshr i32 %29, 1
  %31 = or i32 %28, %30
  %32 = and i32 %31, 1431655765
  store i32 %32, ptr @Temp2, align 4, !tbaa !3
  %33 = load i32, ptr @Temp2, align 4, !tbaa !3
  %34 = icmp ne i32 %33, 0
  br i1 %34, label %35, label %38

35:                                               ; preds = %12
  %36 = load i32, ptr %6, align 4, !tbaa !3
  store i32 %36, ptr @LastNonZeroWordNum, align 4, !tbaa !3
  %37 = load i32, ptr @Temp2, align 4, !tbaa !3
  store i32 %37, ptr @LastNonZeroWord, align 4, !tbaa !3
  br label %38

38:                                               ; preds = %35, %12
  %39 = load i32, ptr @Temp2, align 4, !tbaa !3
  %40 = call i32 @BIT_COUNT(i32 noundef %39)
  %41 = load i32, ptr @DiffVarCounter, align 4, !tbaa !3
  %42 = add nsw i32 %41, %40
  store i32 %42, ptr @DiffVarCounter, align 4, !tbaa !3
  %43 = load i32, ptr @DiffVarCounter, align 4, !tbaa !3
  %44 = icmp sgt i32 %43, 4
  br i1 %44, label %45, label %46

45:                                               ; preds = %38
  store i32 5, ptr %3, align 4
  store i32 1, ptr %7, align 4
  br label %119

46:                                               ; preds = %38
  br label %47

47:                                               ; preds = %46
  %48 = load i32, ptr %6, align 4, !tbaa !3
  %49 = add nsw i32 %48, 1
  store i32 %49, ptr %6, align 4, !tbaa !3
  br label %8, !llvm.loop !25

50:                                               ; preds = %8
  store i32 0, ptr %6, align 4, !tbaa !3
  br label %51

51:                                               ; preds = %76, %50
  %52 = load i32, ptr %6, align 4, !tbaa !3
  %53 = load i32, ptr getelementptr inbounds nuw (%struct.cinfo_tag, ptr @g_CoverInfo, i32 0, i32 3), align 4, !tbaa !22
  %54 = icmp slt i32 %52, %53
  br i1 %54, label %55, label %79

55:                                               ; preds = %51
  %56 = load ptr, ptr %4, align 8, !tbaa !11
  %57 = getelementptr inbounds nuw %struct.cube, ptr %56, i32 0, i32 6
  %58 = load ptr, ptr %57, align 8, !tbaa !23
  %59 = load i32, ptr %6, align 4, !tbaa !3
  %60 = sext i32 %59 to i64
  %61 = getelementptr inbounds i32, ptr %58, i64 %60
  %62 = load i32, ptr %61, align 4, !tbaa !3
  %63 = load ptr, ptr %5, align 8, !tbaa !11
  %64 = getelementptr inbounds nuw %struct.cube, ptr %63, i32 0, i32 6
  %65 = load ptr, ptr %64, align 8, !tbaa !23
  %66 = load i32, ptr %6, align 4, !tbaa !3
  %67 = sext i32 %66 to i64
  %68 = getelementptr inbounds i32, ptr %65, i64 %67
  %69 = load i32, ptr %68, align 4, !tbaa !3
  %70 = xor i32 %62, %69
  %71 = icmp ne i32 %70, 0
  br i1 %71, label %72, label %75

72:                                               ; preds = %55
  %73 = load i32, ptr @DiffVarCounter, align 4, !tbaa !3
  %74 = add nsw i32 %73, 1
  store i32 %74, ptr @DiffVarCounter, align 4, !tbaa !3
  br label %79

75:                                               ; preds = %55
  br label %76

76:                                               ; preds = %75
  %77 = load i32, ptr %6, align 4, !tbaa !3
  %78 = add nsw i32 %77, 1
  store i32 %78, ptr %6, align 4, !tbaa !3
  br label %51, !llvm.loop !26

79:                                               ; preds = %72, %51
  %80 = load i32, ptr @DiffVarCounter, align 4, !tbaa !3
  %81 = icmp eq i32 %80, 1
  br i1 %81, label %82, label %117

82:                                               ; preds = %79
  %83 = load i32, ptr @LastNonZeroWordNum, align 4, !tbaa !3
  %84 = icmp eq i32 %83, -1
  br i1 %84, label %85, label %86

85:                                               ; preds = %82
  store i32 -1, ptr @s_DiffVarNum, align 4, !tbaa !3
  br label %116

86:                                               ; preds = %82
  %87 = load i32, ptr @LastNonZeroWord, align 4, !tbaa !3
  %88 = lshr i32 %87, 2
  store i32 %88, ptr @Temp, align 4, !tbaa !3
  store i32 0, ptr %6, align 4, !tbaa !3
  br label %89

89:                                               ; preds = %93, %86
  %90 = load i32, ptr @Temp, align 4, !tbaa !3
  %91 = icmp ne i32 %90, 0
  br i1 %91, label %92, label %98

92:                                               ; preds = %89
  br label %93

93:                                               ; preds = %92
  %94 = load i32, ptr @Temp, align 4, !tbaa !3
  %95 = lshr i32 %94, 2
  store i32 %95, ptr @Temp, align 4, !tbaa !3
  %96 = load i32, ptr %6, align 4, !tbaa !3
  %97 = add nsw i32 %96, 1
  store i32 %97, ptr %6, align 4, !tbaa !3
  br label %89, !llvm.loop !27

98:                                               ; preds = %89
  %99 = load i32, ptr @LastNonZeroWordNum, align 4, !tbaa !3
  %100 = mul nsw i32 %99, 32
  %101 = sdiv i32 %100, 2
  %102 = load i32, ptr %6, align 4, !tbaa !3
  %103 = add nsw i32 %101, %102
  store i32 %103, ptr @s_DiffVarNum, align 4, !tbaa !3
  %104 = load ptr, ptr %4, align 8, !tbaa !11
  %105 = load i32, ptr @s_DiffVarNum, align 4, !tbaa !3
  %106 = call i32 @GetVar(ptr noundef %104, i32 noundef %105)
  store i32 %106, ptr @s_DiffVarValueP_old, align 4, !tbaa !3
  %107 = load ptr, ptr %5, align 8, !tbaa !11
  %108 = load i32, ptr @s_DiffVarNum, align 4, !tbaa !3
  %109 = call i32 @GetVar(ptr noundef %107, i32 noundef %108)
  store i32 %109, ptr @s_DiffVarValueQ, align 4, !tbaa !3
  %110 = load ptr, ptr %4, align 8, !tbaa !11
  %111 = load i32, ptr @s_DiffVarNum, align 4, !tbaa !3
  %112 = load i32, ptr @s_DiffVarValueQ, align 4, !tbaa !3
  call void @ExorVar(ptr noundef %110, i32 noundef %111, i32 noundef %112)
  %113 = load ptr, ptr %4, align 8, !tbaa !11
  %114 = load i32, ptr @s_DiffVarNum, align 4, !tbaa !3
  %115 = call i32 @GetVar(ptr noundef %113, i32 noundef %114)
  store i32 %115, ptr @s_DiffVarValueP_new, align 4, !tbaa !3
  br label %116

116:                                              ; preds = %98, %85
  br label %117

117:                                              ; preds = %116, %79
  %118 = load i32, ptr @DiffVarCounter, align 4, !tbaa !3
  store i32 %118, ptr %3, align 4
  store i32 1, ptr %7, align 4
  br label %119

119:                                              ; preds = %117, %45
  call void @llvm.lifetime.end.p0(i64 4, ptr %6) #4
  %120 = load i32, ptr %3, align 4
  ret i32 %120
}