; Function Attrs: nofree norecurse nosync nounwind memory(readwrite, inaccessiblemem: none) uwtable
define i32 @GetDistancePlus(ptr noundef readonly captures(none) %0, ptr noundef readonly captures(none) %1) local_unnamed_addr #5 {
  %3 = load i32, ptr getelementptr inbounds nuw (i8, ptr @g_CoverInfo, i64 8), align 8, !tbaa !17
  %4 = icmp sgt i32 %3, 0
  br i1 %4, label %.lr.ph, label %.preheader

.lr.ph:                                           ; preds = %2
  %5 = getelementptr inbounds nuw i8, ptr %0, i64 8
  %6 = load ptr, ptr %5, align 8, !tbaa !11
  %7 = getelementptr inbounds nuw i8, ptr %1, i64 8
  %8 = load ptr, ptr %7, align 8, !tbaa !11
  %wide.trip.count = zext nneg i32 %3 to i64
  br label %17

9:                                                ; preds = %30
  %indvars.iv.next = add nuw nsw i64 %indvars.iv, 1
  %exitcond.not = icmp eq i64 %indvars.iv.next, %wide.trip.count
  br i1 %exitcond.not, label %.preheader, label %17, !llvm.loop !24

.preheader:                                       ; preds = %9, %2
  %10 = phi i32 [ -1, %2 ], [ %31, %9 ]
  %.pr = phi i32 [ 0, %2 ], [ %43, %9 ]
  %11 = load i32, ptr getelementptr inbounds nuw (i8, ptr @g_CoverInfo, i64 12), align 4, !tbaa !21
  %12 = icmp sgt i32 %11, 0
  br i1 %12, label %.lr.ph28, label %thread-pre-split

.lr.ph28:                                         ; preds = %.preheader
  %13 = getelementptr inbounds nuw i8, ptr %0, i64 16
  %14 = load ptr, ptr %13, align 8, !tbaa !22
  %15 = getelementptr inbounds nuw i8, ptr %1, i64 16
  %16 = load ptr, ptr %15, align 8, !tbaa !22
  %wide.trip.count42 = zext nneg i32 %11 to i64
  br label %46

17:                                               ; preds = %.lr.ph, %9
  %18 = phi i32 [ -1, %.lr.ph ], [ %31, %9 ]
  %indvars.iv = phi i64 [ 0, %.lr.ph ], [ %indvars.iv.next, %9 ]
  %19 = phi i32 [ 0, %.lr.ph ], [ %43, %9 ]
  %20 = getelementptr inbounds nuw i32, ptr %6, i64 %indvars.iv
  %21 = load i32, ptr %20, align 4, !tbaa !8
  %22 = getelementptr inbounds nuw i32, ptr %8, i64 %indvars.iv
  %23 = load i32, ptr %22, align 4, !tbaa !8
  %24 = xor i32 %23, %21
  %25 = lshr i32 %24, 1
  %26 = or i32 %25, %24
  %27 = and i32 %26, 1431655765
  %.not22 = icmp eq i32 %27, 0
  br i1 %.not22, label %30, label %28

28:                                               ; preds = %17
  %29 = trunc nuw nsw i64 %indvars.iv to i32
  store i32 %27, ptr @LastNonZeroWord, align 4, !tbaa !8
  br label %30

30:                                               ; preds = %28, %17
  %31 = phi i32 [ %29, %28 ], [ %18, %17 ]
  %32 = and i32 %26, 21845
  %33 = zext nneg i32 %32 to i64
  %34 = getelementptr inbounds nuw [0 x i8], ptr @BitCount, i64 0, i64 %33
  %35 = load i8, ptr %34, align 1, !tbaa !3
  %36 = zext i8 %35 to i32
  %37 = lshr i32 %27, 16
  %38 = zext nneg i32 %37 to i64
  %39 = getelementptr inbounds nuw [0 x i8], ptr @BitCount, i64 0, i64 %38
  %40 = load i8, ptr %39, align 1, !tbaa !3
  %41 = zext i8 %40 to i32
  %42 = add nuw nsw i32 %41, %36
  %43 = add nuw nsw i32 %42, %19
  %44 = icmp samesign ugt i32 %43, 4
  br i1 %44, label %.loopexit, label %9

45:                                               ; preds = %46
  %indvars.iv.next40 = add nuw nsw i64 %indvars.iv39, 1
  %exitcond43.not = icmp eq i64 %indvars.iv.next40, %wide.trip.count42
  br i1 %exitcond43.not, label %thread-pre-split, label %46, !llvm.loop !25

46:                                               ; preds = %.lr.ph28, %45
  %indvars.iv39 = phi i64 [ 0, %.lr.ph28 ], [ %indvars.iv.next40, %45 ]
  %47 = getelementptr inbounds nuw i32, ptr %14, i64 %indvars.iv39
  %48 = load i32, ptr %47, align 4, !tbaa !8
  %49 = getelementptr inbounds nuw i32, ptr %16, i64 %indvars.iv39
  %50 = load i32, ptr %49, align 4, !tbaa !8
  %.not = icmp eq i32 %48, %50
  br i1 %.not, label %45, label %51

51:                                               ; preds = %46
  %52 = add nuw nsw i32 %.pr, 1
  br label %thread-pre-split

thread-pre-split:                                 ; preds = %45, %.preheader, %51
  %53 = phi i32 [ %52, %51 ], [ %.pr, %.preheader ], [ %.pr, %45 ]
  %54 = icmp eq i32 %53, 1
  br i1 %54, label %55, label %.loopexit

55:                                               ; preds = %thread-pre-split
  %56 = icmp eq i32 %10, -1
  br i1 %56, label %57, label %58

57:                                               ; preds = %55
  store i32 -1, ptr @s_DiffVarNum, align 4, !tbaa !8
  br label %.loopexit

58:                                               ; preds = %55
  %59 = load i32, ptr @LastNonZeroWord, align 4, !tbaa !8
  %.not2129 = icmp ult i32 %59, 4
  br i1 %.not2129, label %._crit_edge, label %.lr.ph31

.lr.ph31:                                         ; preds = %58, %.lr.ph31
  %.230 = phi i32 [ %61, %.lr.ph31 ], [ 0, %58 ]
  %.in = phi i32 [ %60, %.lr.ph31 ], [ %59, %58 ]
  %60 = lshr i32 %.in, 2
  %61 = add nuw nsw i32 %.230, 1
  %.not21 = icmp ult i32 %.in, 16
  br i1 %.not21, label %._crit_edge, label %.lr.ph31, !llvm.loop !26

._crit_edge:                                      ; preds = %.lr.ph31, %58
  %.2.lcssa = phi i32 [ 0, %58 ], [ %61, %.lr.ph31 ]
  %62 = shl nsw i32 %10, 4
  %63 = add nsw i32 %.2.lcssa, %62
  store i32 %63, ptr @s_DiffVarNum, align 4, !tbaa !8
  %64 = shl i32 %63, 1
  %65 = getelementptr inbounds nuw i8, ptr %0, i64 8
  %66 = load ptr, ptr %65, align 8, !tbaa !11
  %67 = ashr i32 %64, 5
  %68 = sext i32 %67 to i64
  %69 = getelementptr inbounds i32, ptr %66, i64 %68
  %70 = load i32, ptr %69, align 4, !tbaa !8
  %71 = and i32 %64, 30
  %72 = lshr i32 %70, %71
  %73 = and i32 %72, 3
  store i32 %73, ptr @s_DiffVarValueP_old, align 4, !tbaa !8
  %74 = getelementptr inbounds nuw i8, ptr %1, i64 8
  %75 = load ptr, ptr %74, align 8, !tbaa !11
  %76 = getelementptr inbounds i32, ptr %75, i64 %68
  %77 = load i32, ptr %76, align 4, !tbaa !8
  %78 = lshr i32 %77, %71
  %79 = and i32 %78, 3
  store i32 %79, ptr @s_DiffVarValueQ, align 4, !tbaa !8
  %80 = shl nuw i32 %79, %71
  %81 = load i32, ptr %69, align 4, !tbaa !8
  %82 = xor i32 %80, %81
  store i32 %82, ptr %69, align 4, !tbaa !8
  %83 = load i32, ptr @s_DiffVarNum, align 4, !tbaa !8
  %84 = shl i32 %83, 1
  %85 = ashr i32 %84, 5
  %86 = sext i32 %85 to i64
  %87 = getelementptr inbounds i32, ptr %66, i64 %86
  %88 = load i32, ptr %87, align 4, !tbaa !8
  %89 = and i32 %84, 30
  %90 = lshr i32 %88, %89
  %91 = and i32 %90, 3
  store i32 %91, ptr @s_DiffVarValueP_new, align 4, !tbaa !8
  br label %.loopexit

.loopexit:                                        ; preds = %30, %thread-pre-split, %._crit_edge, %57
  %.019 = phi i32 [ 1, %57 ], [ 1, %._crit_edge ], [ %53, %thread-pre-split ], [ 5, %30 ]
  ret i32 %.019
}